; Function Attrs: nounwind uwtable
define dso_local double @PyComplex_RealAsDouble(ptr noundef %0) local_unnamed_addr #9 {
  %2 = getelementptr i8, ptr %0, i64 8
  %.val = load ptr, ptr %2, align 8, !tbaa !8
  %.not.i11 = icmp eq ptr %.val, @PyComplex_Type
  br i1 %.not.i11, label %PyObject_TypeCheck.exit.thread, label %PyObject_TypeCheck.exit

PyObject_TypeCheck.exit:                          ; preds = %1
  %3 = tail call i32 @PyType_IsSubtype(ptr noundef %.val, ptr noundef nonnull @PyComplex_Type) #16
  %.not13 = icmp eq i32 %3, 0
  br i1 %.not13, label %6, label %PyObject_TypeCheck.exit.thread

PyObject_TypeCheck.exit.thread:                   ; preds = %1, %PyObject_TypeCheck.exit
  %4 = getelementptr inbounds nuw i8, ptr %0, i64 16
  %5 = load double, ptr %4, align 8, !tbaa !15
  br label %Py_DECREF.exit

6:                                                ; preds = %PyObject_TypeCheck.exit
  %7 = tail call fastcc ptr @try_complex_special_method(ptr noundef nonnull %0)
  %.not9 = icmp eq ptr %7, null
  br i1 %.not9, label %16, label %8

8:                                                ; preds = %6
  %9 = getelementptr inbounds nuw i8, ptr %7, i64 16
  %10 = load double, ptr %9, align 8, !tbaa !15
  %11 = load i32, ptr %7, align 8, !tbaa !12
  %.not.i = icmp sgt i32 %11, -1
  br i1 %.not.i, label %12, label %Py_DECREF.exit

12:                                               ; preds = %8
  %13 = add nsw i32 %11, -1
  store i32 %13, ptr %7, align 8, !tbaa !12
  %14 = icmp eq i32 %13, 0
  br i1 %14, label %15, label %Py_DECREF.exit

15:                                               ; preds = %12
  tail call void @_Py_Dealloc(ptr noundef nonnull %7) #16
  br label %Py_DECREF.exit

16:                                               ; preds = %6
  %17 = tail call ptr @PyErr_Occurred() #16
  %.not10 = icmp eq ptr %17, null
  br i1 %.not10, label %18, label %Py_DECREF.exit

18:                                               ; preds = %16
  %19 = tail call double @PyFloat_AsDouble(ptr noundef nonnull %0) #16
  br label %Py_DECREF.exit

Py_DECREF.exit:                                   ; preds = %15, %12, %8, %18, %16, %PyObject_TypeCheck.exit.thread
  %.0 = phi double [ %5, %PyObject_TypeCheck.exit.thread ], [ -1.000000e+00, %16 ], [ %19, %18 ], [ %10, %8 ], [ %10, %12 ], [ %10, %15 ]
  ret double %.0
}